target datalayout = "e-m:e-p270:32:32-p271:32:32-p272:64:64-i64:64-i128:128-f80:128-n8:16:32:64-S128"
target triple = "x86_64-pc-linux-gnu"

; Function Attrs: inlinehint mustprogress nounwind uwtable
define linkonce_odr dso_local void @_ZN4absl13base_internal16UnalignedStore16EPvt(ptr noundef %0, i16 noundef zeroext %1) #9 comdat {
  %3 = alloca ptr, align 8
  %4 = alloca i16, align 2
  store ptr %0, ptr %3, align 8, !tbaa !36
  store i16 %1, ptr %4, align 2, !tbaa !37
  %5 = load ptr, ptr %3, align 8, !tbaa !36
  call void @llvm.memcpy.p0.p0.i64(ptr align 1 %5, ptr align 2 %4, i64 2, i1 false)
  ret void
}

; Function Attrs: inlinehint mustprogress nounwind uwtable
define linkonce_odr dso_local noundef zeroext i16 @_ZN4absl13little_endian10FromHost16Et(i16 noundef zeroext %0) #9 comdat {
  %2 = alloca i16, align 2
  store i16 %0, ptr %2, align 2, !tbaa !37
  %3 = load i16, ptr %2, align 2, !tbaa !37
  ret i16 %3
}

; Function Attrs: inlinehint mustprogress uwtable
define linkonce_odr dso_local void @_ZN4absl13little_endian7Store16EPvt(ptr noundef %0, i16 noundef zeroext %1) #2 comdat {
  %3 = alloca ptr, align 8
  %4 = alloca i16, align 2
  store ptr %0, ptr %3, align 8, !tbaa !36
  store i16 %1, ptr %4, align 2, !tbaa !37
  %5 = load ptr, ptr %3, align 8, !tbaa !36
  %6 = load i16, ptr %4, align 2, !tbaa !37
  %7 = call noundef zeroext i16 @_ZN4absl13little_endian10FromHost16Et(i16 noundef zeroext %6)
  call void @_ZN4absl13base_internal16UnalignedStore16EPvt(ptr noundef %5, i16 noundef zeroext %7)
  ret void
}

; Function Attrs: mustprogress uwtable
define dso_local void @_ZN4absl16numbers_internal12PutTwoDigitsEjPc(i32 noundef %0, ptr noundef %1) #0 {
  %3 = alloca i32, align 4
  %4 = alloca ptr, align 8
  %5 = alloca i32, align 4
  %6 = alloca i32, align 4
  %7 = alloca i32, align 4
  store i32 %0, ptr %3, align 4, !tbaa !34
  store ptr %1, ptr %4, align 8, !tbaa !14
  call void @llvm.lifetime.start.p0(i64 4, ptr %5) #16
  store i32 12336, ptr %5, align 4, !tbaa !34
  call void @llvm.lifetime.start.p0(i64 4, ptr %6) #16
  %8 = load i32, ptr %3, align 4, !tbaa !34
  %9 = zext i32 %8 to i64
  %10 = mul i64 %9, 103
  %11 = udiv i64 %10, 1024
  %12 = trunc i64 %11 to i32
  store i32 %12, ptr %6, align 4, !tbaa !34
  call void @llvm.lifetime.start.p0(i64 4, ptr %7) #16
  %13 = load i32, ptr %3, align 4, !tbaa !34
  %14 = load i32, ptr %6, align 4, !tbaa !34
  %15 = mul i32 10, %14
  %16 = sub i32 %13, %15
  store i32 %16, ptr %7, align 4, !tbaa !34
  %17 = load i32, ptr %6, align 4, !tbaa !34
  %18 = load i32, ptr %7, align 4, !tbaa !34
  %19 = shl i32 %18, 8
  %20 = add i32 %17, %19
  %21 = load i32, ptr %5, align 4, !tbaa !34
  %22 = add i32 %21, %20
  store i32 %22, ptr %5, align 4, !tbaa !34
  %23 = load ptr, ptr %4, align 8, !tbaa !14
  %24 = load i32, ptr %5, align 4, !tbaa !34
  %25 = trunc i32 %24 to i16
  call void @_ZN4absl13little_endian7Store16EPvt(ptr noundef %23, i16 noundef zeroext %25)
  call void @llvm.lifetime.end.p0(i64 4, ptr %7) #16
  call void @llvm.lifetime.end.p0(i64 4, ptr %6) #16
  call void @llvm.lifetime.end.p0(i64 4, ptr %5) #16
  ret void
}