; Function Attrs: mustprogress nofree norecurse nosync nounwind willreturn memory(argmem: write) uwtable
define dso_local void @_ZN4absl16numbers_internal12PutTwoDigitsEjPc(i32 noundef %0, ptr noundef writeonly captures(none) initializes((0, 2)) %1) local_unnamed_addr #4 {
  %3 = zext i32 %0 to i64
  %4 = mul nuw nsw i64 %3, 103
  %5 = lshr i64 %4, 10
  %6 = trunc nuw nsw i64 %5 to i32
  %.neg = mul i32 %6, 246
  %7 = add i32 %.neg, %0
  %8 = shl i32 %7, 8
  %9 = add i32 %8, %6
  %10 = trunc i32 %9 to i16
  %11 = add i16 %10, 12336
  store i16 %11, ptr %1, align 1
  ret void
}